target datalayout = "e-m:e-p270:32:32-p271:32:32-p272:64:64-i64:64-i128:128-f80:128-n8:16:32:64-S128"
target triple = "x86_64-pc-linux-gnu"

%struct.RelFileLocator = type { i32, i32, i32 }
%struct.BlockRefTableSerializedEntry = type { %struct.RelFileLocator, i32, i32, i32 }

; Function Attrs: nounwind uwtable
define internal i32 @BlockRefTableComparator(ptr noundef %0, ptr noundef %1) #0 {
  %3 = alloca i32, align 4
  %4 = alloca ptr, align 8
  %5 = alloca ptr, align 8
  %6 = alloca ptr, align 8
  %7 = alloca ptr, align 8
  %8 = alloca i32, align 4
  store ptr %0, ptr %4, align 8
  store ptr %1, ptr %5, align 8
  call void @llvm.lifetime.start.p0(i64 8, ptr %6) #10
  %9 = load ptr, ptr %4, align 8
  store ptr %9, ptr %6, align 8
  call void @llvm.lifetime.start.p0(i64 8, ptr %7) #10
  %10 = load ptr, ptr %5, align 8
  store ptr %10, ptr %7, align 8
  %11 = load ptr, ptr %6, align 8
  %12 = getelementptr inbounds nuw %struct.BlockRefTableSerializedEntry, ptr %11, i32 0, i32 0
  %13 = getelementptr inbounds nuw %struct.RelFileLocator, ptr %12, i32 0, i32 0
  %14 = load i32, ptr %13, align 4
  %15 = load ptr, ptr %7, align 8
  %16 = getelementptr inbounds nuw %struct.BlockRefTableSerializedEntry, ptr %15, i32 0, i32 0
  %17 = getelementptr inbounds nuw %struct.RelFileLocator, ptr %16, i32 0, i32 0
  %18 = load i32, ptr %17, align 4
  %19 = icmp ugt i32 %14, %18
  br i1 %19, label %20, label %21

20:                                               ; preds = %2
  store i32 1, ptr %3, align 4
  store i32 1, ptr %8, align 4
  br label %95

21:                                               ; preds = %2
  %22 = load ptr, ptr %6, align 8
  %23 = getelementptr inbounds nuw %struct.BlockRefTableSerializedEntry, ptr %22, i32 0, i32 0
  %24 = getelementptr inbounds nuw %struct.RelFileLocator, ptr %23, i32 0, i32 0
  %25 = load i32, ptr %24, align 4
  %26 = load ptr, ptr %7, align 8
  %27 = getelementptr inbounds nuw %struct.BlockRefTableSerializedEntry, ptr %26, i32 0, i32 0
  %28 = getelementptr inbounds nuw %struct.RelFileLocator, ptr %27, i32 0, i32 0
  %29 = load i32, ptr %28, align 4
  %30 = icmp ult i32 %25, %29
  br i1 %30, label %31, label %32

31:                                               ; preds = %21
  store i32 -1, ptr %3, align 4
  store i32 1, ptr %8, align 4
  br label %95

32:                                               ; preds = %21
  %33 = load ptr, ptr %6, align 8
  %34 = getelementptr inbounds nuw %struct.BlockRefTableSerializedEntry, ptr %33, i32 0, i32 0
  %35 = getelementptr inbounds nuw %struct.RelFileLocator, ptr %34, i32 0, i32 1
  %36 = load i32, ptr %35, align 4
  %37 = load ptr, ptr %7, align 8
  %38 = getelementptr inbounds nuw %struct.BlockRefTableSerializedEntry, ptr %37, i32 0, i32 0
  %39 = getelementptr inbounds nuw %struct.RelFileLocator, ptr %38, i32 0, i32 1
  %40 = load i32, ptr %39, align 4
  %41 = icmp ugt i32 %36, %40
  br i1 %41, label %42, label %43

42:                                               ; preds = %32
  store i32 1, ptr %3, align 4
  store i32 1, ptr %8, align 4
  br label %95

43:                                               ; preds = %32
  %44 = load ptr, ptr %6, align 8
  %45 = getelementptr inbounds nuw %struct.BlockRefTableSerializedEntry, ptr %44, i32 0, i32 0
  %46 = getelementptr inbounds nuw %struct.RelFileLocator, ptr %45, i32 0, i32 1
  %47 = load i32, ptr %46, align 4
  %48 = load ptr, ptr %7, align 8
  %49 = getelementptr inbounds nuw %struct.BlockRefTableSerializedEntry, ptr %48, i32 0, i32 0
  %50 = getelementptr inbounds nuw %struct.RelFileLocator, ptr %49, i32 0, i32 1
  %51 = load i32, ptr %50, align 4
  %52 = icmp ult i32 %47, %51
  br i1 %52, label %53, label %54

53:                                               ; preds = %43
  store i32 -1, ptr %3, align 4
  store i32 1, ptr %8, align 4
  br label %95

54:                                               ; preds = %43
  %55 = load ptr, ptr %6, align 8
  %56 = getelementptr inbounds nuw %struct.BlockRefTableSerializedEntry, ptr %55, i32 0, i32 0
  %57 = getelementptr inbounds nuw %struct.RelFileLocator, ptr %56, i32 0, i32 2
  %58 = load i32, ptr %57, align 4
  %59 = load ptr, ptr %7, align 8
  %60 = getelementptr inbounds nuw %struct.BlockRefTableSerializedEntry, ptr %59, i32 0, i32 0
  %61 = getelementptr inbounds nuw %struct.RelFileLocator, ptr %60, i32 0, i32 2
  %62 = load i32, ptr %61, align 4
  %63 = icmp ugt i32 %58, %62
  br i1 %63, label %64, label %65

64:                                               ; preds = %54
  store i32 1, ptr %3, align 4
  store i32 1, ptr %8, align 4
  br label %95

65:                                               ; preds = %54
  %66 = load ptr, ptr %6, align 8
  %67 = getelementptr inbounds nuw %struct.BlockRefTableSerializedEntry, ptr %66, i32 0, i32 0
  %68 = getelementptr inbounds nuw %struct.RelFileLocator, ptr %67, i32 0, i32 2
  %69 = load i32, ptr %68, align 4
  %70 = load ptr, ptr %7, align 8
  %71 = getelementptr inbounds nuw %struct.BlockRefTableSerializedEntry, ptr %70, i32 0, i32 0
  %72 = getelementptr inbounds nuw %struct.RelFileLocator, ptr %71, i32 0, i32 2
  %73 = load i32, ptr %72, align 4
  %74 = icmp ult i32 %69, %73
  br i1 %74, label %75, label %76

75:                                               ; preds = %65
  store i32 -1, ptr %3, align 4
  store i32 1, ptr %8, align 4
  br label %95

76:                                               ; preds = %65
  %77 = load ptr, ptr %6, align 8
  %78 = getelementptr inbounds nuw %struct.BlockRefTableSerializedEntry, ptr %77, i32 0, i32 1
  %79 = load i32, ptr %78, align 4
  %80 = load ptr, ptr %7, align 8
  %81 = getelementptr inbounds nuw %struct.BlockRefTableSerializedEntry, ptr %80, i32 0, i32 1
  %82 = load i32, ptr %81, align 4
  %83 = icmp sgt i32 %79, %82
  br i1 %83, label %84, label %85

84:                                               ; preds = %76
  store i32 1, ptr %3, align 4
  store i32 1, ptr %8, align 4
  br label %95

85:                                               ; preds = %76
  %86 = load ptr, ptr %6, align 8
  %87 = getelementptr inbounds nuw %struct.BlockRefTableSerializedEntry, ptr %86, i32 0, i32 1
  %88 = load i32, ptr %87, align 4
  %89 = load ptr, ptr %7, align 8
  %90 = getelementptr inbounds nuw %struct.BlockRefTableSerializedEntry, ptr %89, i32 0, i32 1
  %91 = load i32, ptr %90, align 4
  %92 = icmp slt i32 %88, %91
  br i1 %92, label %93, label %94

93:                                               ; preds = %85
  store i32 -1, ptr %3, align 4
  store i32 1, ptr %8, align 4
  br label %95

94:                                               ; preds = %85
  store i32 0, ptr %3, align 4
  store i32 1, ptr %8, align 4
  br label %95

95:                                               ; preds = %94, %93, %84, %75, %64, %53, %42, %31, %20
  call void @llvm.lifetime.end.p0(i64 8, ptr %7) #10
  call void @llvm.lifetime.end.p0(i64 8, ptr %6) #10
  %96 = load i32, ptr %3, align 4
  ret i32 %96
}